; Function Attrs: nounwind uwtable
define internal range(i32 -2147483648, 1) i32 @process_command(ptr noundef %0, ptr noundef %1, ptr noundef %2, ptr noundef %3, i32 noundef %4, i32 noundef %5) #0 {
  %7 = tail call i32 @ff_filter_process_command(ptr noundef %0, ptr noundef %1, ptr noundef %2, ptr noundef %3, i32 noundef %4, i32 noundef %5) #10
  %8 = icmp slt i32 %7, 0
  br i1 %8, label %14, label %9

9:                                                ; preds = %6
  %10 = getelementptr inbounds nuw i8, ptr %0, i64 56
  %11 = load ptr, ptr %10, align 8, !tbaa !4
  %12 = load ptr, ptr %11, align 8, !tbaa !20
  %13 = tail call i32 @config_output(ptr noundef %12) #11
  br label %14

14:                                               ; preds = %6, %9
  %.0 = phi i32 [ 0, %9 ], [ %7, %6 ]
  ret i32 %.0
}